(dp0
S'filterUpV'
p1
I35
sS'upper'
p2
I180
sS'lower'
p3
I0
sS'filterDown'
p4
I52
sS'filterUpS'
p5
I255
sS'dilate'
p6
I28
sS'smooth'
p7
I24
sS'filterDownS'
p8
I0
sS'filterDownV'
p9
I0
sS'erode'
p10
I15
sS'filterUp'
p11
I255
s.