(dp0
S'filterUpV'
p1
I35
sS'upper'
p2
I180
sS'lower'
p3
I0
sS'filterDown'
p4
I52
sS'filterUpS'
p5
I255
sS'dilate'
p6
I28
sS'blur'
p7
I27
sS'diilate'
p8
I14
sS'mouseOff'
p9
I00
sS'filterDownS'
p10
I0
sS'filterDownV'
p11
I0
sS'erode'
p12
I9
sS'filterUp'
p13
I255
s.