(dp0
S'filterUpV'
p1
I35
sS'upper'
p2
I180
sS'lower'
p3
I0
sS'filterDown'
p4
I52
sS'filterUpS'
p5
I255
sS'dilate'
p6
I11
sS'filterDownV'
p7
I0
sS'diilate'
p8
I14
sS'filterDownS'
p9
I0
sS'blur'
p10
I18
sS'actionMouse'
p11
I00
sS'erode'
p12
I12
sS'controlMusic'
p13
I00
sS'switchWorkspace'
p14
I00
sS'filterUp'
p15
I255
sS'mouseOn'
p16
I00
s.