(dp0
S'filterUpV'
p1
I80
sS'upper'
p2
I0
sS'lower'
p3
I20
sS'filterDown'
p4
I52
sS'filterUpS'
p5
I48
sS'dilate'
p6
I28
sS'blur'
p7
I77
sS'diilate'
p8
F80.0
sS'filterDownS'
p9
I255
sS'filterDownV'
p10
I255
sS'erode'
p11
F76.0
sS'filterUp'
p12
I255
s.