(dp0
S'filterUpV'
p1
I35
sS'upper'
p2
I180
sS'lower'
p3
I0
sS'filterDown'
p4
I52
sS'filterUpS'
p5
I255
sS'dilate'
p6
I28
sS'blur'
p7
I52
sS'diilate'
p8
I20
sS'filterDownS'
p9
I0
sS'filterDownV'
p10
I0
sS'erode'
p11
I20
sS'filterUp'
p12
I255
s.